target datalayout = "e-m:e-p270:32:32-p271:32:32-p272:64:64-i64:64-i128:128-f80:128-n8:16:32:64-S128"
target triple = "x86_64-pc-linux-gnu"

%struct.TIDBitmap = type { i32, ptr, i32, ptr, i32, i32, i32, i32, i32, i32, %struct.PagetableEntry, ptr, ptr, i64, i64, i64, i64, ptr }
%struct.PagetableEntry = type { i32, i8, i8, i8, [5 x i64] }
%struct.TBMPrivateIterator = type { ptr, i32, i32, i32, %struct.TBMIterateResult }
%struct.TBMIterateResult = type { i32, i32, i8, [0 x i16] }

; Function Attrs: inlinehint nounwind uwtable
define internal i32 @tbm_extract_page_tuple(ptr noundef %0, ptr noundef %1) #2 {
  %3 = alloca ptr, align 8
  %4 = alloca ptr, align 8
  %5 = alloca i32, align 4
  %6 = alloca i32, align 4
  %7 = alloca i64, align 8
  %8 = alloca i32, align 4
  store ptr %0, ptr %3, align 8
  store ptr %1, ptr %4, align 8
  call void @llvm.lifetime.start.p0(i64 4, ptr %5) #9
  call void @llvm.lifetime.start.p0(i64 4, ptr %6) #9
  store i32 0, ptr %6, align 4
  store i32 0, ptr %5, align 4
  br label %9

9:                                                ; preds = %48, %2
  %10 = load i32, ptr %5, align 4
  %11 = icmp slt i32 %10, 5
  br i1 %11, label %12, label %51

12:                                               ; preds = %9
  call void @llvm.lifetime.start.p0(i64 8, ptr %7) #9
  %13 = load ptr, ptr %3, align 8
  %14 = getelementptr inbounds nuw %struct.PagetableEntry, ptr %13, i32 0, i32 4
  %15 = load i32, ptr %5, align 4
  %16 = sext i32 %15 to i64
  %17 = getelementptr inbounds [5 x i64], ptr %14, i64 0, i64 %16
  %18 = load i64, ptr %17, align 8
  store i64 %18, ptr %7, align 8
  %19 = load i64, ptr %7, align 8
  %20 = icmp ne i64 %19, 0
  br i1 %20, label %21, label %47

21:                                               ; preds = %12
  call void @llvm.lifetime.start.p0(i64 4, ptr %8) #9
  %22 = load i32, ptr %5, align 4
  %23 = mul i32 %22, 64
  %24 = add i32 %23, 1
  store i32 %24, ptr %8, align 4
  br label %25

25:                                               ; preds = %41, %21
  %26 = load i64, ptr %7, align 8
  %27 = icmp ne i64 %26, 0
  br i1 %27, label %28, label %46

28:                                               ; preds = %25
  %29 = load i64, ptr %7, align 8
  %30 = and i64 %29, 1
  %31 = icmp ne i64 %30, 0
  br i1 %31, label %32, label %41

32:                                               ; preds = %28
  %33 = load i32, ptr %8, align 4
  %34 = trunc i32 %33 to i16
  %35 = load ptr, ptr %4, align 8
  %36 = getelementptr inbounds nuw %struct.TBMIterateResult, ptr %35, i32 0, i32 3
  %37 = load i32, ptr %6, align 4
  %38 = add i32 %37, 1
  store i32 %38, ptr %6, align 4
  %39 = sext i32 %37 to i64
  %40 = getelementptr inbounds [0 x i16], ptr %36, i64 0, i64 %39
  store i16 %34, ptr %40, align 2
  br label %41

41:                                               ; preds = %32, %28
  %42 = load i32, ptr %8, align 4
  %43 = add i32 %42, 1
  store i32 %43, ptr %8, align 4
  %44 = load i64, ptr %7, align 8
  %45 = lshr i64 %44, 1
  store i64 %45, ptr %7, align 8
  br label %25, !llvm.loop !26

46:                                               ; preds = %25
  call void @llvm.lifetime.end.p0(i64 4, ptr %8) #9
  br label %47

47:                                               ; preds = %46, %12
  call void @llvm.lifetime.end.p0(i64 8, ptr %7) #9
  br label %48

48:                                               ; preds = %47
  %49 = load i32, ptr %5, align 4
  %50 = add i32 %49, 1
  store i32 %50, ptr %5, align 4
  br label %9, !llvm.loop !27

51:                                               ; preds = %9
  %52 = load i32, ptr %6, align 4
  call void @llvm.lifetime.end.p0(i64 4, ptr %6) #9
  call void @llvm.lifetime.end.p0(i64 4, ptr %5) #9
  ret i32 %52
}

; Function Attrs: inlinehint nounwind uwtable
define internal void @tbm_advance_schunkbit(ptr noundef %0, ptr noundef %1) #2 {
  %3 = alloca ptr, align 8
  %4 = alloca ptr, align 8
  %5 = alloca i32, align 4
  %6 = alloca i32, align 4
  %7 = alloca i32, align 4
  %8 = alloca i32, align 4
  store ptr %0, ptr %3, align 8
  store ptr %1, ptr %4, align 8
  call void @llvm.lifetime.start.p0(i64 4, ptr %5) #9
  %9 = load ptr, ptr %4, align 8
  %10 = load i32, ptr %9, align 4
  store i32 %10, ptr %5, align 4
  br label %11

11:                                               ; preds = %36, %2
  %12 = load i32, ptr %5, align 4
  %13 = icmp slt i32 %12, 256
  br i1 %13, label %14, label %37

14:                                               ; preds = %11
  call void @llvm.lifetime.start.p0(i64 4, ptr %6) #9
  %15 = load i32, ptr %5, align 4
  %16 = sdiv i32 %15, 64
  store i32 %16, ptr %6, align 4
  call void @llvm.lifetime.start.p0(i64 4, ptr %7) #9
  %17 = load i32, ptr %5, align 4
  %18 = srem i32 %17, 64
  store i32 %18, ptr %7, align 4
  %19 = load ptr, ptr %3, align 8
  %20 = getelementptr inbounds nuw %struct.PagetableEntry, ptr %19, i32 0, i32 4
  %21 = load i32, ptr %6, align 4
  %22 = sext i32 %21 to i64
  %23 = getelementptr inbounds [5 x i64], ptr %20, i64 0, i64 %22
  %24 = load i64, ptr %23, align 8
  %25 = load i32, ptr %7, align 4
  %26 = zext i32 %25 to i64
  %27 = shl i64 1, %26
  %28 = and i64 %24, %27
  %29 = icmp ne i64 %28, 0
  br i1 %29, label %30, label %31

30:                                               ; preds = %14
  store i32 3, ptr %8, align 4
  br label %34

31:                                               ; preds = %14
  %32 = load i32, ptr %5, align 4
  %33 = add i32 %32, 1
  store i32 %33, ptr %5, align 4
  store i32 0, ptr %8, align 4
  br label %34

34:                                               ; preds = %31, %30
  call void @llvm.lifetime.end.p0(i64 4, ptr %7) #9
  call void @llvm.lifetime.end.p0(i64 4, ptr %6) #9
  %35 = load i32, ptr %8, align 4
  switch i32 %35, label %40 [
    i32 0, label %36
    i32 3, label %37
  ]

36:                                               ; preds = %34
  br label %11, !llvm.loop !25

37:                                               ; preds = %34, %11
  %38 = load i32, ptr %5, align 4
  %39 = load ptr, ptr %4, align 8
  store i32 %38, ptr %39, align 4
  call void @llvm.lifetime.end.p0(i64 4, ptr %5) #9
  ret void

40:                                               ; preds = %34
  unreachable
}

; Function Attrs: nounwind uwtable
define dso_local ptr @tbm_private_iterate(ptr noundef %0) #0 {
  %2 = alloca ptr, align 8
  %3 = alloca ptr, align 8
  %4 = alloca ptr, align 8
  %5 = alloca ptr, align 8
  %6 = alloca ptr, align 8
  %7 = alloca i32, align 4
  %8 = alloca i32, align 4
  %9 = alloca ptr, align 8
  %10 = alloca i32, align 4
  %11 = alloca ptr, align 8
  %12 = alloca i32, align 4
  store ptr %0, ptr %3, align 8
  call void @llvm.lifetime.start.p0(i64 8, ptr %4) #9
  %13 = load ptr, ptr %3, align 8
  %14 = getelementptr inbounds nuw %struct.TBMPrivateIterator, ptr %13, i32 0, i32 0
  %15 = load ptr, ptr %14, align 8
  store ptr %15, ptr %4, align 8
  call void @llvm.lifetime.start.p0(i64 8, ptr %5) #9
  %16 = load ptr, ptr %3, align 8
  %17 = getelementptr inbounds nuw %struct.TBMPrivateIterator, ptr %16, i32 0, i32 4
  store ptr %17, ptr %5, align 8
  br label %18

18:                                               ; preds = %55, %1
  %19 = load ptr, ptr %3, align 8
  %20 = getelementptr inbounds nuw %struct.TBMPrivateIterator, ptr %19, i32 0, i32 2
  %21 = load i32, ptr %20, align 4
  %22 = load ptr, ptr %4, align 8
  %23 = getelementptr inbounds nuw %struct.TIDBitmap, ptr %22, i32 0, i32 7
  %24 = load i32, ptr %23, align 4
  %25 = icmp slt i32 %21, %24
  br i1 %25, label %26, label %56

26:                                               ; preds = %18
  call void @llvm.lifetime.start.p0(i64 8, ptr %6) #9
  %27 = load ptr, ptr %4, align 8
  %28 = getelementptr inbounds nuw %struct.TIDBitmap, ptr %27, i32 0, i32 12
  %29 = load ptr, ptr %28, align 8
  %30 = load ptr, ptr %3, align 8
  %31 = getelementptr inbounds nuw %struct.TBMPrivateIterator, ptr %30, i32 0, i32 2
  %32 = load i32, ptr %31, align 4
  %33 = sext i32 %32 to i64
  %34 = getelementptr inbounds ptr, ptr %29, i64 %33
  %35 = load ptr, ptr %34, align 8
  store ptr %35, ptr %6, align 8
  call void @llvm.lifetime.start.p0(i64 4, ptr %7) #9
  %36 = load ptr, ptr %3, align 8
  %37 = getelementptr inbounds nuw %struct.TBMPrivateIterator, ptr %36, i32 0, i32 3
  %38 = load i32, ptr %37, align 8
  store i32 %38, ptr %7, align 4
  %39 = load ptr, ptr %6, align 8
  call void @tbm_advance_schunkbit(ptr noundef %39, ptr noundef %7)
  %40 = load i32, ptr %7, align 4
  %41 = icmp slt i32 %40, 256
  br i1 %41, label %42, label %46

42:                                               ; preds = %26
  %43 = load i32, ptr %7, align 4
  %44 = load ptr, ptr %3, align 8
  %45 = getelementptr inbounds nuw %struct.TBMPrivateIterator, ptr %44, i32 0, i32 3
  store i32 %43, ptr %45, align 8
  store i32 3, ptr %8, align 4
  br label %53

46:                                               ; preds = %26
  %47 = load ptr, ptr %3, align 8
  %48 = getelementptr inbounds nuw %struct.TBMPrivateIterator, ptr %47, i32 0, i32 2
  %49 = load i32, ptr %48, align 4
  %50 = add i32 %49, 1
  store i32 %50, ptr %48, align 4
  %51 = load ptr, ptr %3, align 8
  %52 = getelementptr inbounds nuw %struct.TBMPrivateIterator, ptr %51, i32 0, i32 3
  store i32 0, ptr %52, align 8
  store i32 0, ptr %8, align 4
  br label %53

53:                                               ; preds = %46, %42
  call void @llvm.lifetime.end.p0(i64 4, ptr %7) #9
  call void @llvm.lifetime.end.p0(i64 8, ptr %6) #9
  %54 = load i32, ptr %8, align 4
  switch i32 %54, label %172 [
    i32 0, label %55
    i32 3, label %56
  ]

55:                                               ; preds = %53
  br label %18, !llvm.loop !24

56:                                               ; preds = %53, %18
  %57 = load ptr, ptr %3, align 8
  %58 = getelementptr inbounds nuw %struct.TBMPrivateIterator, ptr %57, i32 0, i32 2
  %59 = load i32, ptr %58, align 4
  %60 = load ptr, ptr %4, align 8
  %61 = getelementptr inbounds nuw %struct.TIDBitmap, ptr %60, i32 0, i32 7
  %62 = load i32, ptr %61, align 4
  %63 = icmp slt i32 %59, %62
  br i1 %63, label %64, label %119

64:                                               ; preds = %56
  call void @llvm.lifetime.start.p0(i64 8, ptr %9) #9
  %65 = load ptr, ptr %4, align 8
  %66 = getelementptr inbounds nuw %struct.TIDBitmap, ptr %65, i32 0, i32 12
  %67 = load ptr, ptr %66, align 8
  %68 = load ptr, ptr %3, align 8
  %69 = getelementptr inbounds nuw %struct.TBMPrivateIterator, ptr %68, i32 0, i32 2
  %70 = load i32, ptr %69, align 4
  %71 = sext i32 %70 to i64
  %72 = getelementptr inbounds ptr, ptr %67, i64 %71
  %73 = load ptr, ptr %72, align 8
  store ptr %73, ptr %9, align 8
  call void @llvm.lifetime.start.p0(i64 4, ptr %10) #9
  %74 = load ptr, ptr %9, align 8
  %75 = getelementptr inbounds nuw %struct.PagetableEntry, ptr %74, i32 0, i32 0
  %76 = load i32, ptr %75, align 8
  %77 = load ptr, ptr %3, align 8
  %78 = getelementptr inbounds nuw %struct.TBMPrivateIterator, ptr %77, i32 0, i32 3
  %79 = load i32, ptr %78, align 8
  %80 = add i32 %76, %79
  store i32 %80, ptr %10, align 4
  %81 = load ptr, ptr %3, align 8
  %82 = getelementptr inbounds nuw %struct.TBMPrivateIterator, ptr %81, i32 0, i32 1
  %83 = load i32, ptr %82, align 8
  %84 = load ptr, ptr %4, align 8
  %85 = getelementptr inbounds nuw %struct.TIDBitmap, ptr %84, i32 0, i32 6
  %86 = load i32, ptr %85, align 8
  %87 = icmp sge i32 %83, %86
  br i1 %87, label %102, label %88

88:                                               ; preds = %64
  %89 = load i32, ptr %10, align 4
  %90 = load ptr, ptr %4, align 8
  %91 = getelementptr inbounds nuw %struct.TIDBitmap, ptr %90, i32 0, i32 11
  %92 = load ptr, ptr %91, align 8
  %93 = load ptr, ptr %3, align 8
  %94 = getelementptr inbounds nuw %struct.TBMPrivateIterator, ptr %93, i32 0, i32 1
  %95 = load i32, ptr %94, align 8
  %96 = sext i32 %95 to i64
  %97 = getelementptr inbounds ptr, ptr %92, i64 %96
  %98 = load ptr, ptr %97, align 8
  %99 = getelementptr inbounds nuw %struct.PagetableEntry, ptr %98, i32 0, i32 0
  %100 = load i32, ptr %99, align 8
  %101 = icmp ult i32 %89, %100
  br i1 %101, label %102, label %115

102:                                              ; preds = %88, %64
  %103 = load i32, ptr %10, align 4
  %104 = load ptr, ptr %5, align 8
  %105 = getelementptr inbounds nuw %struct.TBMIterateResult, ptr %104, i32 0, i32 0
  store i32 %103, ptr %105, align 4
  %106 = load ptr, ptr %5, align 8
  %107 = getelementptr inbounds nuw %struct.TBMIterateResult, ptr %106, i32 0, i32 1
  store i32 -1, ptr %107, align 4
  %108 = load ptr, ptr %5, align 8
  %109 = getelementptr inbounds nuw %struct.TBMIterateResult, ptr %108, i32 0, i32 2
  store i8 1, ptr %109, align 4
  %110 = load ptr, ptr %3, align 8
  %111 = getelementptr inbounds nuw %struct.TBMPrivateIterator, ptr %110, i32 0, i32 3
  %112 = load i32, ptr %111, align 8
  %113 = add i32 %112, 1
  store i32 %113, ptr %111, align 8
  %114 = load ptr, ptr %5, align 8
  store ptr %114, ptr %2, align 8
  store i32 1, ptr %8, align 4
  br label %116

115:                                              ; preds = %88
  store i32 0, ptr %8, align 4
  br label %116

116:                                              ; preds = %115, %102
  call void @llvm.lifetime.end.p0(i64 4, ptr %10) #9
  call void @llvm.lifetime.end.p0(i64 8, ptr %9) #9
  %117 = load i32, ptr %8, align 4
  switch i32 %117, label %170 [
    i32 0, label %118
  ]

118:                                              ; preds = %116
  br label %119

119:                                              ; preds = %118, %56
  %120 = load ptr, ptr %3, align 8
  %121 = getelementptr inbounds nuw %struct.TBMPrivateIterator, ptr %120, i32 0, i32 1
  %122 = load i32, ptr %121, align 8
  %123 = load ptr, ptr %4, align 8
  %124 = getelementptr inbounds nuw %struct.TIDBitmap, ptr %123, i32 0, i32 6
  %125 = load i32, ptr %124, align 8
  %126 = icmp slt i32 %122, %125
  br i1 %126, label %127, label %169

127:                                              ; preds = %119
  call void @llvm.lifetime.start.p0(i64 8, ptr %11) #9
  call void @llvm.lifetime.start.p0(i64 4, ptr %12) #9
  %128 = load ptr, ptr %4, align 8
  %129 = getelementptr inbounds nuw %struct.TIDBitmap, ptr %128, i32 0, i32 2
  %130 = load i32, ptr %129, align 8
  %131 = icmp eq i32 %130, 1
  br i1 %131, label %132, label %135

132:                                              ; preds = %127
  %133 = load ptr, ptr %4, align 8
  %134 = getelementptr inbounds nuw %struct.TIDBitmap, ptr %133, i32 0, i32 10
  store ptr %134, ptr %11, align 8
  br label %145

135:                                              ; preds = %127
  %136 = load ptr, ptr %4, align 8
  %137 = getelementptr inbounds nuw %struct.TIDBitmap, ptr %136, i32 0, i32 11
  %138 = load ptr, ptr %137, align 8
  %139 = load ptr, ptr %3, align 8
  %140 = getelementptr inbounds nuw %struct.TBMPrivateIterator, ptr %139, i32 0, i32 1
  %141 = load i32, ptr %140, align 8
  %142 = sext i32 %141 to i64
  %143 = getelementptr inbounds ptr, ptr %138, i64 %142
  %144 = load ptr, ptr %143, align 8
  store ptr %144, ptr %11, align 8
  br label %145

145:                                              ; preds = %135, %132
  %146 = load ptr, ptr %11, align 8
  %147 = load ptr, ptr %5, align 8
  %148 = call i32 @tbm_extract_page_tuple(ptr noundef %146, ptr noundef %147)
  store i32 %148, ptr %12, align 4
  %149 = load ptr, ptr %11, align 8
  %150 = getelementptr inbounds nuw %struct.PagetableEntry, ptr %149, i32 0, i32 0
  %151 = load i32, ptr %150, align 8
  %152 = load ptr, ptr %5, align 8
  %153 = getelementptr inbounds nuw %struct.TBMIterateResult, ptr %152, i32 0, i32 0
  store i32 %151, ptr %153, align 4
  %154 = load i32, ptr %12, align 4
  %155 = load ptr, ptr %5, align 8
  %156 = getelementptr inbounds nuw %struct.TBMIterateResult, ptr %155, i32 0, i32 1
  store i32 %154, ptr %156, align 4
  %157 = load ptr, ptr %11, align 8
  %158 = getelementptr inbounds nuw %struct.PagetableEntry, ptr %157, i32 0, i32 3
  %159 = load i8, ptr %158, align 2, !range !4, !noundef !5
  %160 = trunc i8 %159 to i1
  %161 = load ptr, ptr %5, align 8
  %162 = getelementptr inbounds nuw %struct.TBMIterateResult, ptr %161, i32 0, i32 2
  %163 = zext i1 %160 to i8
  store i8 %163, ptr %162, align 4
  %164 = load ptr, ptr %3, align 8
  %165 = getelementptr inbounds nuw %struct.TBMPrivateIterator, ptr %164, i32 0, i32 1
  %166 = load i32, ptr %165, align 8
  %167 = add i32 %166, 1
  store i32 %167, ptr %165, align 8
  %168 = load ptr, ptr %5, align 8
  store ptr %168, ptr %2, align 8
  store i32 1, ptr %8, align 4
  call void @llvm.lifetime.end.p0(i64 4, ptr %12) #9
  call void @llvm.lifetime.end.p0(i64 8, ptr %11) #9
  br label %170

169:                                              ; preds = %119
  store ptr null, ptr %2, align 8
  store i32 1, ptr %8, align 4
  br label %170

170:                                              ; preds = %169, %145, %116
  call void @llvm.lifetime.end.p0(i64 8, ptr %5) #9
  call void @llvm.lifetime.end.p0(i64 8, ptr %4) #9
  %171 = load ptr, ptr %2, align 8
  ret ptr %171

172:                                              ; preds = %53
  unreachable
}