; Function Attrs: nofree norecurse nosync nounwind memory(read, argmem: readwrite, inaccessiblemem: none) uwtable
define dso_local ptr @tbm_private_iterate(ptr noundef captures(ret: address, provenance) %0) local_unnamed_addr #5 {
  %2 = load ptr, ptr %0, align 8
  %3 = getelementptr inbounds nuw i8, ptr %0, i64 20
  %4 = getelementptr inbounds nuw i8, ptr %0, i64 12
  %5 = getelementptr inbounds nuw i8, ptr %2, i64 44
  %6 = load i32, ptr %4, align 4
  %7 = load i32, ptr %5, align 4
  %8 = icmp slt i32 %6, %7
  br i1 %8, label %.lr.ph, label %.loopexit

.lr.ph:                                           ; preds = %1
  %9 = getelementptr inbounds nuw i8, ptr %2, i64 112
  %10 = getelementptr inbounds nuw i8, ptr %0, i64 16
  %11 = sext i32 %6 to i64
  %.pre = load i32, ptr %10, align 8
  br label %12

12:                                               ; preds = %.lr.ph, %tbm_advance_schunkbit.exit.thread
  %13 = phi i32 [ %6, %.lr.ph ], [ %31, %tbm_advance_schunkbit.exit.thread ]
  %14 = phi i32 [ %.pre, %.lr.ph ], [ 0, %tbm_advance_schunkbit.exit.thread ]
  %indvars.iv = phi i64 [ %11, %.lr.ph ], [ %indvars.iv.next, %tbm_advance_schunkbit.exit.thread ]
  %15 = load ptr, ptr %9, align 8
  %16 = getelementptr inbounds ptr, ptr %15, i64 %indvars.iv
  %17 = load ptr, ptr %16, align 8
  %18 = getelementptr inbounds nuw i8, ptr %17, i64 8
  %smax.i = tail call i32 @llvm.smax.i32(i32 %14, i32 256)
  br label %19

19:                                               ; preds = %20, %12
  %.010.i = phi i32 [ %14, %12 ], [ %29, %20 ]
  %exitcond.not.i = icmp eq i32 %.010.i, %smax.i
  br i1 %exitcond.not.i, label %tbm_advance_schunkbit.exit.thread, label %20

20:                                               ; preds = %19
  %21 = sdiv i32 %.010.i, 64
  %22 = srem i32 %.010.i, 64
  %23 = sext i32 %21 to i64
  %24 = getelementptr inbounds [5 x i64], ptr %18, i64 0, i64 %23
  %25 = load i64, ptr %24, align 8
  %26 = zext nneg i32 %22 to i64
  %27 = shl nuw i64 1, %26
  %28 = and i64 %25, %27
  %.not.i = icmp eq i64 %28, 0
  %29 = add nsw i32 %.010.i, 1
  br i1 %.not.i, label %19, label %tbm_advance_schunkbit.exit

tbm_advance_schunkbit.exit:                       ; preds = %20
  %30 = icmp slt i32 %.010.i, 256
  br i1 %30, label %.thread, label %tbm_advance_schunkbit.exit.thread

.thread:                                          ; preds = %tbm_advance_schunkbit.exit
  store i32 %.010.i, ptr %10, align 8
  %.pre71 = load i32, ptr %5, align 4
  br label %.loopexit

tbm_advance_schunkbit.exit.thread:                ; preds = %19, %tbm_advance_schunkbit.exit
  %indvars.iv.next = add nsw i64 %indvars.iv, 1
  %31 = trunc nsw i64 %indvars.iv.next to i32
  store i32 %31, ptr %4, align 4
  store i32 0, ptr %10, align 8
  %32 = load i32, ptr %5, align 4
  %33 = sext i32 %32 to i64
  %34 = icmp slt i64 %indvars.iv.next, %33
  br i1 %34, label %12, label %.loopexit

.loopexit:                                        ; preds = %tbm_advance_schunkbit.exit.thread, %1, %.thread
  %35 = phi i32 [ %.pre71, %.thread ], [ %7, %1 ], [ %32, %tbm_advance_schunkbit.exit.thread ]
  %36 = phi i32 [ %13, %.thread ], [ %6, %1 ], [ %31, %tbm_advance_schunkbit.exit.thread ]
  %37 = icmp slt i32 %36, %35
  br i1 %37, label %38, label %..thread61_crit_edge

..thread61_crit_edge:                             ; preds = %.loopexit
  %.phi.trans.insert = getelementptr inbounds nuw i8, ptr %0, i64 8
  %.pre72 = load i32, ptr %.phi.trans.insert, align 8
  %.phi.trans.insert73 = getelementptr inbounds nuw i8, ptr %2, i64 40
  %.pre74 = load i32, ptr %.phi.trans.insert73, align 8
  br label %.thread61

38:                                               ; preds = %.loopexit
  %39 = getelementptr inbounds nuw i8, ptr %2, i64 112
  %40 = load ptr, ptr %39, align 8
  %41 = sext i32 %36 to i64
  %42 = getelementptr inbounds ptr, ptr %40, i64 %41
  %43 = load ptr, ptr %42, align 8
  %44 = load i32, ptr %43, align 8
  %45 = getelementptr inbounds nuw i8, ptr %0, i64 16
  %46 = load i32, ptr %45, align 8
  %47 = add i32 %46, %44
  %48 = getelementptr inbounds nuw i8, ptr %0, i64 8
  %49 = load i32, ptr %48, align 8
  %50 = getelementptr inbounds nuw i8, ptr %2, i64 40
  %51 = load i32, ptr %50, align 8
  %.not = icmp slt i32 %49, %51
  br i1 %.not, label %52, label %60

52:                                               ; preds = %38
  %53 = getelementptr inbounds nuw i8, ptr %2, i64 104
  %54 = load ptr, ptr %53, align 8
  %55 = sext i32 %49 to i64
  %56 = getelementptr inbounds ptr, ptr %54, i64 %55
  %57 = load ptr, ptr %56, align 8
  %58 = load i32, ptr %57, align 8
  %59 = icmp ult i32 %47, %58
  br i1 %59, label %60, label %.thread61

60:                                               ; preds = %38, %52
  store i32 %47, ptr %3, align 4
  %61 = getelementptr inbounds nuw i8, ptr %0, i64 24
  store i32 -1, ptr %61, align 4
  %62 = getelementptr inbounds nuw i8, ptr %0, i64 28
  store i8 1, ptr %62, align 4
  %63 = add i32 %46, 1
  store i32 %63, ptr %45, align 8
  br label %105

.thread61:                                        ; preds = %..thread61_crit_edge, %52
  %64 = phi i32 [ %.pre74, %..thread61_crit_edge ], [ %51, %52 ]
  %65 = phi i32 [ %.pre72, %..thread61_crit_edge ], [ %49, %52 ]
  %66 = getelementptr inbounds nuw i8, ptr %0, i64 8
  %67 = icmp slt i32 %65, %64
  br i1 %67, label %68, label %105

68:                                               ; preds = %.thread61
  %69 = getelementptr inbounds nuw i8, ptr %2, i64 16
  %70 = load i32, ptr %69, align 8
  %71 = icmp eq i32 %70, 1
  br i1 %71, label %72, label %74

72:                                               ; preds = %68
  %73 = getelementptr inbounds nuw i8, ptr %2, i64 56
  br label %80

74:                                               ; preds = %68
  %75 = getelementptr inbounds nuw i8, ptr %2, i64 104
  %76 = load ptr, ptr %75, align 8
  %77 = sext i32 %65 to i64
  %78 = getelementptr inbounds ptr, ptr %76, i64 %77
  %79 = load ptr, ptr %78, align 8
  br label %80

80:                                               ; preds = %74, %72
  %.046 = phi ptr [ %73, %72 ], [ %79, %74 ]
  %81 = getelementptr inbounds nuw i8, ptr %.046, i64 8
  %82 = getelementptr inbounds nuw i8, ptr %0, i64 30
  br label %83

83:                                               ; preds = %.loopexit.i, %80
  %indvars.iv.i = phi i64 [ 0, %80 ], [ %indvars.iv.next.i, %.loopexit.i ]
  %.01423.i = phi i32 [ 0, %80 ], [ %.1.i, %.loopexit.i ]
  %84 = getelementptr inbounds nuw [5 x i64], ptr %81, i64 0, i64 %indvars.iv.i
  %85 = load i64, ptr %84, align 8
  %.not.i54 = icmp eq i64 %85, 0
  br i1 %.not.i54, label %.loopexit.i, label %86

86:                                               ; preds = %83
  %indvars.iv.tr.i = trunc i64 %indvars.iv.i to i16
  %87 = shl i16 %indvars.iv.tr.i, 6
  %88 = or disjoint i16 %87, 1
  br label %89

89:                                               ; preds = %95, %86
  %.021.i = phi i16 [ %88, %86 ], [ %96, %95 ]
  %.01320.i = phi i64 [ %85, %86 ], [ %97, %95 ]
  %.219.i = phi i32 [ %.01423.i, %86 ], [ %.3.i, %95 ]
  %90 = and i64 %.01320.i, 1
  %.not18.i = icmp eq i64 %90, 0
  br i1 %.not18.i, label %95, label %91

91:                                               ; preds = %89
  %92 = add i32 %.219.i, 1
  %93 = sext i32 %.219.i to i64
  %94 = getelementptr inbounds [0 x i16], ptr %82, i64 0, i64 %93
  store i16 %.021.i, ptr %94, align 2
  br label %95

95:                                               ; preds = %91, %89
  %.3.i = phi i32 [ %92, %91 ], [ %.219.i, %89 ]
  %96 = add nuw nsw i16 %.021.i, 1
  %97 = lshr i64 %.01320.i, 1
  %.not17.i = icmp ult i64 %.01320.i, 2
  br i1 %.not17.i, label %.loopexit.i, label %89, !llvm.loop !21

.loopexit.i:                                      ; preds = %95, %83
  %.1.i = phi i32 [ %.01423.i, %83 ], [ %.3.i, %95 ]
  %indvars.iv.next.i = add nuw nsw i64 %indvars.iv.i, 1
  %exitcond.not.i55 = icmp eq i64 %indvars.iv.next.i, 5
  br i1 %exitcond.not.i55, label %tbm_extract_page_tuple.exit, label %83, !llvm.loop !22

tbm_extract_page_tuple.exit:                      ; preds = %.loopexit.i
  %98 = load i32, ptr %.046, align 8
  store i32 %98, ptr %3, align 4
  %99 = getelementptr inbounds nuw i8, ptr %0, i64 24
  store i32 %.1.i, ptr %99, align 4
  %100 = getelementptr inbounds nuw i8, ptr %.046, i64 6
  %101 = load i8, ptr %100, align 2, !range !4, !noundef !5
  %102 = getelementptr inbounds nuw i8, ptr %0, i64 28
  store i8 %101, ptr %102, align 4
  %103 = load i32, ptr %66, align 8
  %104 = add i32 %103, 1
  store i32 %104, ptr %66, align 8
  br label %105

105:                                              ; preds = %60, %.thread61, %tbm_extract_page_tuple.exit
  %.1 = phi ptr [ %3, %tbm_extract_page_tuple.exit ], [ %3, %60 ], [ null, %.thread61 ]
  ret ptr %.1
}